; Function Attrs: nounwind uwtable
define dso_local i32 @archive_read_open(ptr noundef %0, ptr noundef %1, ptr noundef %2, ptr noundef %3, ptr noundef %4) local_unnamed_addr #0 {
  %6 = tail call i32 @__archive_check_magic(ptr noundef %0, i32 noundef 14594245, i32 noundef 1, ptr noundef nonnull @.str.1) #15
  %.not.i = icmp eq i32 %6, -30
  br i1 %.not.i, label %archive_read_set_open_callback.exit, label %7

7:                                                ; preds = %5
  %8 = getelementptr inbounds nuw i8, ptr %0, i64 176
  store ptr %2, ptr %8, align 8, !tbaa !32
  br label %archive_read_set_open_callback.exit

archive_read_set_open_callback.exit:              ; preds = %5, %7
  %9 = tail call i32 @__archive_check_magic(ptr noundef %0, i32 noundef 14594245, i32 noundef 1, ptr noundef nonnull @.str.2) #15
  %.not.i9 = icmp eq i32 %9, -30
  br i1 %.not.i9, label %archive_read_set_read_callback.exit, label %10

10:                                               ; preds = %archive_read_set_open_callback.exit
  %11 = getelementptr inbounds nuw i8, ptr %0, i64 184
  store ptr %3, ptr %11, align 8, !tbaa !33
  br label %archive_read_set_read_callback.exit

archive_read_set_read_callback.exit:              ; preds = %archive_read_set_open_callback.exit, %10
  %12 = tail call i32 @__archive_check_magic(ptr noundef %0, i32 noundef 14594245, i32 noundef 1, ptr noundef nonnull @.str.5) #15
  %.not.i11 = icmp eq i32 %12, -30
  br i1 %.not.i11, label %archive_read_set_close_callback.exit, label %13

13:                                               ; preds = %archive_read_set_read_callback.exit
  %14 = getelementptr inbounds nuw i8, ptr %0, i64 208
  store ptr %4, ptr %14, align 8, !tbaa !34
  br label %archive_read_set_close_callback.exit

archive_read_set_close_callback.exit:             ; preds = %archive_read_set_read_callback.exit, %13
  %15 = tail call i32 @__archive_check_magic(ptr noundef %0, i32 noundef 14594245, i32 noundef 1, ptr noundef nonnull @.str.7) #15
  %.not.i.i = icmp eq i32 %15, -30
  br i1 %.not.i.i, label %archive_read_set_callback_data.exit, label %16

16:                                               ; preds = %archive_read_set_close_callback.exit
  %17 = getelementptr inbounds nuw i8, ptr %0, i64 224
  %18 = load i32, ptr %17, align 8, !tbaa !35
  %19 = icmp eq i32 %18, 0
  br i1 %19, label %20, label %._crit_edge.i

._crit_edge.i:                                    ; preds = %16
  %.phi.trans.insert.i = getelementptr inbounds nuw i8, ptr %0, i64 240
  %.pre.i = load ptr, ptr %.phi.trans.insert.i, align 8, !tbaa !36
  br label %26

20:                                               ; preds = %16
  %21 = tail call noalias dereferenceable_or_null(24) ptr @calloc(i64 noundef 1, i64 noundef 24) #14
  %22 = getelementptr inbounds nuw i8, ptr %0, i64 240
  store ptr %21, ptr %22, align 8, !tbaa !36
  %23 = icmp eq ptr %21, null
  br i1 %23, label %24, label %25

24:                                               ; preds = %20
  tail call void (ptr, i32, ptr, ...) @archive_set_error(ptr noundef nonnull %0, i32 noundef 12, ptr noundef nonnull @.str.8) #15
  br label %archive_read_set_callback_data.exit

25:                                               ; preds = %20
  store i32 1, ptr %17, align 8, !tbaa !35
  br label %26

26:                                               ; preds = %25, %._crit_edge.i
  %27 = phi ptr [ %.pre.i, %._crit_edge.i ], [ %21, %25 ]
  %28 = getelementptr inbounds nuw i8, ptr %27, i64 16
  store ptr %1, ptr %28, align 8, !tbaa !37
  tail call void @llvm.memset.p0.i64(ptr noundef nonnull align 8 dereferenceable(16) %27, i8 -1, i64 16, i1 false)
  br label %archive_read_set_callback_data.exit

archive_read_set_callback_data.exit:              ; preds = %archive_read_set_close_callback.exit, %24, %26
  %29 = tail call i32 @archive_read_open1(ptr noundef %0)
  ret i32 %29
}